; Function Attrs: mustprogress nofree norecurse nosync nounwind willreturn memory(read, inaccessiblemem: none) uwtable
define noundef float @_ZNK5faiss17AdditiveQuantizer22compute_1_distance_LUTILb0ELNS0_13Search_type_tE5EEEfPKhPKf(ptr nocapture noundef nonnull readonly align 8 dereferenceable(308) %0, ptr nocapture noundef readonly %1, ptr nocapture noundef readonly %2) local_unnamed_addr #13 align 2 {
  %4 = getelementptr inbounds i8, ptr %0, i64 24
  %5 = load i64, ptr %4, align 8
  %.not.i = icmp eq i64 %5, 0
  br i1 %.not.i, label %_ZN5faiss12_GLOBAL__N_114accumulate_IPsERKNS_17AdditiveQuantizerERNS_15BitstringReaderEPKhPKf.exit.thread, label %.lr.ph.i

_ZN5faiss12_GLOBAL__N_114accumulate_IPsERKNS_17AdditiveQuantizerERNS_15BitstringReaderEPKhPKf.exit.thread: ; preds = %3
  %6 = load i8, ptr %1, align 1
  %7 = zext i8 %6 to i32
  br label %64

.lr.ph.i:                                         ; preds = %3
  %8 = getelementptr inbounds i8, ptr %0, i64 32
  %9 = load ptr, ptr %8, align 8
  br label %10

10:                                               ; preds = %_ZN5faiss15BitstringReader4readEi.exit.i, %.lr.ph.i
  %11 = phi i64 [ 0, %.lr.ph.i ], [ %.sroa.4.0, %_ZN5faiss15BitstringReader4readEi.exit.i ]
  %indvars.iv.i = phi i64 [ 0, %.lr.ph.i ], [ %indvars.iv.next.i, %_ZN5faiss15BitstringReader4readEi.exit.i ]
  %.05.i = phi ptr [ %2, %.lr.ph.i ], [ %56, %_ZN5faiss15BitstringReader4readEi.exit.i ]
  %.0124.i = phi float [ 0.000000e+00, %.lr.ph.i ], [ %54, %_ZN5faiss15BitstringReader4readEi.exit.i ]
  %12 = getelementptr inbounds i64, ptr %9, i64 %indvars.iv.i
  %13 = load i64, ptr %12, align 8
  %14 = trunc i64 %13 to i32
  %15 = trunc i64 %11 to i32
  %16 = and i32 %15, 7
  %17 = sub nuw nsw i32 8, %16
  %18 = lshr i64 %11, 3
  %19 = getelementptr inbounds i8, ptr %1, i64 %18
  %20 = load i8, ptr %19, align 1
  %21 = zext i8 %20 to i32
  %22 = lshr i32 %21, %16
  %.not.i.i = icmp slt i32 %17, %14
  br i1 %.not.i.i, label %28, label %23

23:                                               ; preds = %10
  %notmask30.i.i = shl nsw i32 -1, %14
  %24 = xor i32 %notmask30.i.i, -1
  %25 = and i32 %22, %24
  %26 = zext nneg i32 %25 to i64
  %sext1.i = shl i64 %13, 32
  %27 = ashr exact i64 %sext1.i, 32
  br label %_ZN5faiss15BitstringReader4readEi.exit.i

28:                                               ; preds = %10
  %29 = zext nneg i32 %22 to i64
  %30 = and i64 %13, 4294967295
  %31 = sub nsw i32 %14, %17
  %.02431.i.i = add nuw nsw i64 %18, 1
  %32 = icmp sgt i32 %31, 8
  br i1 %32, label %.lr.ph.preheader.i.i, label %._crit_edge.i.i

.lr.ph.preheader.i.i:                             ; preds = %28
  %33 = zext nneg i32 %17 to i64
  br label %.lr.ph.i.i

.lr.ph.i.i:                                       ; preds = %.lr.ph.i.i, %.lr.ph.preheader.i.i
  %indvars.iv.i.i = phi i64 [ %33, %.lr.ph.preheader.i.i ], [ %indvars.iv.next.i.i, %.lr.ph.i.i ]
  %.02435.i.i = phi i64 [ %.02431.i.i, %.lr.ph.preheader.i.i ], [ %.024.i.i, %.lr.ph.i.i ]
  %.02633.i.i = phi i64 [ %29, %.lr.ph.preheader.i.i ], [ %38, %.lr.ph.i.i ]
  %.02732.i.i = phi i32 [ %31, %.lr.ph.preheader.i.i ], [ %39, %.lr.ph.i.i ]
  %34 = getelementptr inbounds i8, ptr %1, i64 %.02435.i.i
  %35 = load i8, ptr %34, align 1
  %36 = zext i8 %35 to i64
  %37 = shl i64 %36, %indvars.iv.i.i
  %38 = or i64 %37, %.02633.i.i
  %indvars.iv.next.i.i = add nuw nsw i64 %indvars.iv.i.i, 8
  %39 = add nsw i32 %.02732.i.i, -8
  %.024.i.i = add nuw nsw i64 %.02435.i.i, 1
  %40 = icmp ugt i32 %.02732.i.i, 16
  br i1 %40, label %.lr.ph.i.i, label %._crit_edge.loopexit.i.i, !llvm.loop !16

._crit_edge.loopexit.i.i:                         ; preds = %.lr.ph.i.i
  %41 = trunc i64 %indvars.iv.next.i.i to i32
  br label %._crit_edge.i.i

._crit_edge.i.i:                                  ; preds = %._crit_edge.loopexit.i.i, %28
  %.027.lcssa.i.i = phi i32 [ %31, %28 ], [ %39, %._crit_edge.loopexit.i.i ]
  %.026.lcssa.i.i = phi i64 [ %29, %28 ], [ %38, %._crit_edge.loopexit.i.i ]
  %.025.lcssa.i.i = phi i32 [ %17, %28 ], [ %41, %._crit_edge.loopexit.i.i ]
  %.024.lcssa.i.i = phi i64 [ %.02431.i.i, %28 ], [ %.024.i.i, %._crit_edge.loopexit.i.i ]
  %42 = getelementptr inbounds i8, ptr %1, i64 %.024.lcssa.i.i
  %43 = load i8, ptr %42, align 1
  %notmask.i.i = shl nsw i32 -1, %.027.lcssa.i.i
  %44 = xor i32 %notmask.i.i, -1
  %45 = zext i8 %43 to i32
  %46 = and i32 %45, %44
  %47 = zext nneg i32 %46 to i64
  %48 = zext nneg i32 %.025.lcssa.i.i to i64
  %49 = shl i64 %47, %48
  %50 = or i64 %49, %.026.lcssa.i.i
  br label %_ZN5faiss15BitstringReader4readEi.exit.i

_ZN5faiss15BitstringReader4readEi.exit.i:         ; preds = %._crit_edge.i.i, %23
  %.pn = phi i64 [ %30, %._crit_edge.i.i ], [ %27, %23 ]
  %.0.i.i = phi i64 [ %50, %._crit_edge.i.i ], [ %26, %23 ]
  %.sroa.4.0 = add i64 %.pn, %11
  %sext.i = shl i64 %.0.i.i, 32
  %51 = ashr exact i64 %sext.i, 32
  %52 = getelementptr inbounds float, ptr %.05.i, i64 %51
  %53 = load float, ptr %52, align 4
  %54 = fadd float %.0124.i, %53
  %55 = shl nuw i64 1, %13
  %56 = getelementptr inbounds float, ptr %.05.i, i64 %55
  %indvars.iv.next.i = add nuw nsw i64 %indvars.iv.i, 1
  %exitcond.not = icmp eq i64 %indvars.iv.next.i, %5
  br i1 %exitcond.not, label %_ZN5faiss12_GLOBAL__N_114accumulate_IPsERKNS_17AdditiveQuantizerERNS_15BitstringReaderEPKhPKf.exit, label %10, !llvm.loop !37

_ZN5faiss12_GLOBAL__N_114accumulate_IPsERKNS_17AdditiveQuantizerERNS_15BitstringReaderEPKhPKf.exit: ; preds = %_ZN5faiss15BitstringReader4readEi.exit.i
  %57 = trunc i64 %.sroa.4.0 to i32
  %58 = and i32 %57, 7
  %59 = lshr i64 %.sroa.4.0, 3
  %60 = getelementptr i8, ptr %1, i64 %59
  %61 = load i8, ptr %60, align 1
  %62 = zext i8 %61 to i32
  %63 = lshr i32 %62, %58
  %.not.i6 = icmp ugt i32 %58, 4
  br i1 %.not.i6, label %._crit_edge.i, label %64

64:                                               ; preds = %_ZN5faiss12_GLOBAL__N_114accumulate_IPsERKNS_17AdditiveQuantizerERNS_15BitstringReaderEPKhPKf.exit.thread, %_ZN5faiss12_GLOBAL__N_114accumulate_IPsERKNS_17AdditiveQuantizerERNS_15BitstringReaderEPKhPKf.exit
  %65 = phi i32 [ %7, %_ZN5faiss12_GLOBAL__N_114accumulate_IPsERKNS_17AdditiveQuantizerERNS_15BitstringReaderEPKhPKf.exit.thread ], [ %63, %_ZN5faiss12_GLOBAL__N_114accumulate_IPsERKNS_17AdditiveQuantizerERNS_15BitstringReaderEPKhPKf.exit ]
  %.012.lcssa.i20 = phi float [ 0.000000e+00, %_ZN5faiss12_GLOBAL__N_114accumulate_IPsERKNS_17AdditiveQuantizerERNS_15BitstringReaderEPKhPKf.exit.thread ], [ %54, %_ZN5faiss12_GLOBAL__N_114accumulate_IPsERKNS_17AdditiveQuantizerERNS_15BitstringReaderEPKhPKf.exit ]
  %66 = trunc i32 %65 to i16
  %67 = and i16 %66, 15
  br label %_ZN5faiss15BitstringReader4readEi.exit

._crit_edge.i:                                    ; preds = %_ZN5faiss12_GLOBAL__N_114accumulate_IPsERKNS_17AdditiveQuantizerERNS_15BitstringReaderEPKhPKf.exit
  %68 = trunc i32 %63 to i16
  %69 = add nsw i32 %58, -4
  %70 = getelementptr i8, ptr %60, i64 1
  %71 = load i8, ptr %70, align 1
  %notmask.i = shl nsw i32 -1, %69
  %72 = xor i32 %notmask.i, -1
  %73 = zext i8 %71 to i32
  %74 = and i32 %73, %72
  %75 = trunc i32 %74 to i16
  %76 = trunc i32 %58 to i16
  %77 = sub nuw nsw i16 8, %76
  %78 = shl nuw nsw i16 %75, %77
  %79 = or i16 %78, %68
  br label %_ZN5faiss15BitstringReader4readEi.exit

_ZN5faiss15BitstringReader4readEi.exit:           ; preds = %64, %._crit_edge.i
  %.012.lcssa.i19 = phi float [ %.012.lcssa.i20, %64 ], [ %54, %._crit_edge.i ]
  %.0.i = phi i16 [ %67, %64 ], [ %79, %._crit_edge.i ]
  %80 = trunc i16 %.0.i to i8
  %81 = getelementptr inbounds i8, ptr %0, i64 300
  %82 = load float, ptr %81, align 4
  %83 = getelementptr inbounds i8, ptr %0, i64 304
  %84 = load float, ptr %83, align 8
  %85 = uitofp i8 %80 to double
  %86 = fadd double %85, 5.000000e-01
  %87 = fmul double %86, 6.250000e-02
  %88 = fsub float %84, %82
  %89 = fpext float %88 to double
  %90 = fpext float %82 to double
  %91 = tail call double @llvm.fmuladd.f64(double %87, double %89, double %90)
  %92 = fptrunc double %91 to float
  %93 = tail call float @llvm.fmuladd.f32(float %.012.lcssa.i19, float -2.000000e+00, float %92)
  ret float %93
}